target datalayout = "e-m:e-p270:32:32-p271:32:32-p272:64:64-i64:64-i128:128-f80:128-n8:16:32:64-S128"
target triple = "x86_64-pc-linux-gnu"

%"struct.std::_Vector_base" = type { %"struct.std::_Vector_base<pxrInternal_v0_24__pxrReserved__::TfPatternMatcher, std::allocator<pxrInternal_v0_24__pxrReserved__::TfPatternMatcher>>::_Vector_impl" }
%"struct.std::_Vector_base<pxrInternal_v0_24__pxrReserved__::TfPatternMatcher, std::allocator<pxrInternal_v0_24__pxrReserved__::TfPatternMatcher>>::_Vector_impl" = type { %"struct.std::_Vector_base<pxrInternal_v0_24__pxrReserved__::TfPatternMatcher, std::allocator<pxrInternal_v0_24__pxrReserved__::TfPatternMatcher>>::_Vector_impl_data" }
%"struct.std::_Vector_base<pxrInternal_v0_24__pxrReserved__::TfPatternMatcher, std::allocator<pxrInternal_v0_24__pxrReserved__::TfPatternMatcher>>::_Vector_impl_data" = type { ptr, ptr, ptr }
%"class.pxrInternal_v0_24__pxrReserved__::TfPatternMatcher" = type { i8, i8, %"class.std::__cxx11::basic_string", i8, %"class.pxrInternal_v0_24__pxrReserved__::ArchRegex" }
%"class.std::__cxx11::basic_string" = type { %"struct.std::__cxx11::basic_string<char>::_Alloc_hider", i64, %union.anon }
%"struct.std::__cxx11::basic_string<char>::_Alloc_hider" = type { ptr }
%union.anon = type { i64, [8 x i8] }
%"class.pxrInternal_v0_24__pxrReserved__::ArchRegex" = type { i32, %"class.std::__cxx11::basic_string", %"class.std::shared_ptr" }
%"class.std::shared_ptr" = type { %"class.std::__shared_ptr" }
%"class.std::__shared_ptr" = type { ptr, %"class.std::__shared_count" }
%"class.std::__shared_count" = type { ptr }
%"class.pxrInternal_v0_24__pxrReserved__::TfCallContext" = type <{ ptr, ptr, i64, ptr, i8, [7 x i8] }>
%"class.__gnu_cxx::__normal_iterator.53" = type { ptr }
%"class.pxrInternal_v0_24__pxrReserved__::TfDiagnosticBase" = type <{ %"class.pxrInternal_v0_24__pxrReserved__::TfCallContext", %"class.std::__cxx11::basic_string", %"class.pxrInternal_v0_24__pxrReserved__::TfEnum", %"class.std::__cxx11::basic_string", %"class.std::any", i64, i8, [7 x i8] }>
%"class.pxrInternal_v0_24__pxrReserved__::TfEnum" = type <{ ptr, i32, [4 x i8] }>
%"class.std::any" = type { ptr, %"union.std::any::_Storage" }
%"union.std::any::_Storage" = type { ptr }

; Function Attrs: mustprogress nounwind uwtable
define linkonce_odr noundef nonnull align 8 dereferenceable(8) ptr @_ZNK9__gnu_cxx17__normal_iteratorIPKN32pxrInternal_v0_24__pxrReserved__16TfPatternMatcherESt6vectorIS2_SaIS2_EEE4baseEv(ptr noundef nonnull align 8 dereferenceable(8) %0) #1 comdat align 2 {
  %2 = alloca ptr, align 8
  store ptr %0, ptr %2, align 8
  %3 = load ptr, ptr %2, align 8
  %4 = getelementptr inbounds nuw %"class.__gnu_cxx::__normal_iterator.53", ptr %3, i32 0, i32 0
  ret ptr %4
}

; Function Attrs: mustprogress nounwind uwtable
define linkonce_odr void @_ZN9__gnu_cxx17__normal_iteratorIPKN32pxrInternal_v0_24__pxrReserved__16TfPatternMatcherESt6vectorIS2_SaIS2_EEEC2ERKS4_(ptr noundef nonnull align 8 dereferenceable(8) %0, ptr noundef nonnull align 8 dereferenceable(8) %1) unnamed_addr #1 comdat align 2 {
  %3 = alloca ptr, align 8
  %4 = alloca ptr, align 8
  store ptr %0, ptr %3, align 8
  store ptr %1, ptr %4, align 8
  %5 = load ptr, ptr %3, align 8
  %6 = getelementptr inbounds nuw %"class.__gnu_cxx::__normal_iterator.53", ptr %5, i32 0, i32 0
  %7 = load ptr, ptr %4, align 8
  %8 = load ptr, ptr %7, align 8
  store ptr %8, ptr %6, align 8
  ret void
}

; Function Attrs: mustprogress nounwind uwtable
define linkonce_odr noundef nonnull align 8 dereferenceable(32) ptr @_ZNK32pxrInternal_v0_24__pxrReserved__16TfDiagnosticBase13GetCommentaryB5cxx11Ev(ptr noundef nonnull align 8 dereferenceable(145) %0) #1 comdat align 2 {
  %2 = alloca ptr, align 8
  store ptr %0, ptr %2, align 8
  %3 = load ptr, ptr %2, align 8
  %4 = getelementptr inbounds nuw %"class.pxrInternal_v0_24__pxrReserved__::TfDiagnosticBase", ptr %3, i32 0, i32 1
  ret ptr %4
}

; Function Attrs: mustprogress nounwind uwtable
define linkonce_odr noundef nonnull align 8 dereferenceable(8) ptr @_ZN9__gnu_cxx17__normal_iteratorIPKN32pxrInternal_v0_24__pxrReserved__16TfPatternMatcherESt6vectorIS2_SaIS2_EEEppEv(ptr noundef nonnull align 8 dereferenceable(8) %0) #1 comdat align 2 {
  %2 = alloca ptr, align 8
  store ptr %0, ptr %2, align 8
  %3 = load ptr, ptr %2, align 8
  %4 = getelementptr inbounds nuw %"class.__gnu_cxx::__normal_iterator.53", ptr %3, i32 0, i32 0
  %5 = load ptr, ptr %4, align 8
  %6 = getelementptr inbounds %"class.pxrInternal_v0_24__pxrReserved__::TfPatternMatcher", ptr %5, i32 1
  store ptr %6, ptr %4, align 8
  ret ptr %3
}

; Function Attrs: mustprogress nounwind uwtable
define linkonce_odr noundef nonnull align 8 dereferenceable(104) ptr @_ZNK9__gnu_cxx17__normal_iteratorIPKN32pxrInternal_v0_24__pxrReserved__16TfPatternMatcherESt6vectorIS2_SaIS2_EEEdeEv(ptr noundef nonnull align 8 dereferenceable(8) %0) #1 comdat align 2 {
  %2 = alloca ptr, align 8
  store ptr %0, ptr %2, align 8
  %3 = load ptr, ptr %2, align 8
  %4 = getelementptr inbounds nuw %"class.__gnu_cxx::__normal_iterator.53", ptr %3, i32 0, i32 0
  %5 = load ptr, ptr %4, align 8
  ret ptr %5
}

; Function Attrs: mustprogress nounwind uwtable
define linkonce_odr noundef zeroext i1 @_ZN9__gnu_cxxneIPKN32pxrInternal_v0_24__pxrReserved__16TfPatternMatcherESt6vectorIS2_SaIS2_EEEEbRKNS_17__normal_iteratorIT_T0_EESD_(ptr noundef nonnull align 8 dereferenceable(8) %0, ptr noundef nonnull align 8 dereferenceable(8) %1) #1 comdat {
  %3 = alloca ptr, align 8
  %4 = alloca ptr, align 8
  store ptr %0, ptr %3, align 8
  store ptr %1, ptr %4, align 8
  %5 = load ptr, ptr %3, align 8
  %6 = call noundef nonnull align 8 dereferenceable(8) ptr @_ZNK9__gnu_cxx17__normal_iteratorIPKN32pxrInternal_v0_24__pxrReserved__16TfPatternMatcherESt6vectorIS2_SaIS2_EEE4baseEv(ptr noundef nonnull align 8 dereferenceable(8) %5) #10
  %7 = load ptr, ptr %6, align 8
  %8 = load ptr, ptr %4, align 8
  %9 = call noundef nonnull align 8 dereferenceable(8) ptr @_ZNK9__gnu_cxx17__normal_iteratorIPKN32pxrInternal_v0_24__pxrReserved__16TfPatternMatcherESt6vectorIS2_SaIS2_EEE4baseEv(ptr noundef nonnull align 8 dereferenceable(8) %8) #10
  %10 = load ptr, ptr %9, align 8
  %11 = icmp ne ptr %7, %10
  ret i1 %11
}

; Function Attrs: mustprogress nounwind uwtable
define linkonce_odr ptr @_ZNKSt6vectorIN32pxrInternal_v0_24__pxrReserved__16TfPatternMatcherESaIS1_EE3endEv(ptr noundef nonnull align 8 dereferenceable(24) %0) #1 comdat align 2 {
  %2 = alloca %"class.__gnu_cxx::__normal_iterator.53", align 8
  %3 = alloca ptr, align 8
  store ptr %0, ptr %3, align 8
  %4 = load ptr, ptr %3, align 8
  %5 = getelementptr inbounds nuw %"struct.std::_Vector_base", ptr %4, i32 0, i32 0
  %6 = getelementptr inbounds nuw %"struct.std::_Vector_base<pxrInternal_v0_24__pxrReserved__::TfPatternMatcher, std::allocator<pxrInternal_v0_24__pxrReserved__::TfPatternMatcher>>::_Vector_impl_data", ptr %5, i32 0, i32 1
  call void @_ZN9__gnu_cxx17__normal_iteratorIPKN32pxrInternal_v0_24__pxrReserved__16TfPatternMatcherESt6vectorIS2_SaIS2_EEEC2ERKS4_(ptr noundef nonnull align 8 dereferenceable(8) %2, ptr noundef nonnull align 8 dereferenceable(8) %6) #10
  %7 = getelementptr inbounds nuw %"class.__gnu_cxx::__normal_iterator.53", ptr %2, i32 0, i32 0
  %8 = load ptr, ptr %7, align 8
  ret ptr %8
}

; Function Attrs: mustprogress nounwind uwtable
define linkonce_odr ptr @_ZNKSt6vectorIN32pxrInternal_v0_24__pxrReserved__16TfPatternMatcherESaIS1_EE5beginEv(ptr noundef nonnull align 8 dereferenceable(24) %0) #1 comdat align 2 {
  %2 = alloca %"class.__gnu_cxx::__normal_iterator.53", align 8
  %3 = alloca ptr, align 8
  store ptr %0, ptr %3, align 8
  %4 = load ptr, ptr %3, align 8
  %5 = getelementptr inbounds nuw %"struct.std::_Vector_base", ptr %4, i32 0, i32 0
  %6 = getelementptr inbounds nuw %"struct.std::_Vector_base<pxrInternal_v0_24__pxrReserved__::TfPatternMatcher, std::allocator<pxrInternal_v0_24__pxrReserved__::TfPatternMatcher>>::_Vector_impl_data", ptr %5, i32 0, i32 0
  call void @_ZN9__gnu_cxx17__normal_iteratorIPKN32pxrInternal_v0_24__pxrReserved__16TfPatternMatcherESt6vectorIS2_SaIS2_EEEC2ERKS4_(ptr noundef nonnull align 8 dereferenceable(8) %2, ptr noundef nonnull align 8 dereferenceable(8) %6) #10
  %7 = getelementptr inbounds nuw %"class.__gnu_cxx::__normal_iterator.53", ptr %2, i32 0, i32 0
  %8 = load ptr, ptr %7, align 8
  ret ptr %8
}

; Function Attrs: mustprogress uwtable
define noundef zeroext i1 @_ZN32pxrInternal_v0_24__pxrReserved__42UsdUtilsConditionalAbortDiagnosticDelegate12_RuleMatcherERKNS_16TfDiagnosticBaseERKSt6vectorINS_16TfPatternMatcherESaIS5_EES9_(ptr noundef nonnull align 8 dereferenceable(104) %0, ptr noundef nonnull align 8 dereferenceable(145) %1, ptr noundef nonnull align 8 dereferenceable(24) %2, ptr noundef nonnull align 8 dereferenceable(24) %3) unnamed_addr #0 align 2 personality ptr @__gxx_personality_v0 {
  %5 = alloca i1, align 1
  %6 = alloca ptr, align 8
  %7 = alloca ptr, align 8
  %8 = alloca ptr, align 8
  %9 = alloca ptr, align 8
  %10 = alloca ptr, align 8
  %11 = alloca %"class.std::__cxx11::basic_string", align 8
  %12 = alloca ptr, align 8
  %13 = alloca %"class.__gnu_cxx::__normal_iterator.53", align 8
  %14 = alloca %"class.__gnu_cxx::__normal_iterator.53", align 8
  %15 = alloca ptr, align 8
  %16 = alloca ptr, align 8
  %17 = alloca i32, align 4
  %18 = alloca i32, align 4
  %19 = alloca ptr, align 8
  %20 = alloca ptr, align 8
  %21 = alloca %"class.__gnu_cxx::__normal_iterator.53", align 8
  %22 = alloca %"class.__gnu_cxx::__normal_iterator.53", align 8
  %23 = alloca ptr, align 8
  store ptr %0, ptr %6, align 8
  store ptr %1, ptr %7, align 8
  store ptr %2, ptr %8, align 8
  store ptr %3, ptr %9, align 8
  %24 = load ptr, ptr %7, align 8
  call void @_ZNK32pxrInternal_v0_24__pxrReserved__16TfDiagnosticBase17GetSourceFileNameB5cxx11Ev(ptr dead_on_unwind writable sret(%"class.std::__cxx11::basic_string") align 8 %11, ptr noundef nonnull align 8 dereferenceable(145) %24)
  store ptr %11, ptr %10, align 8
  %25 = load ptr, ptr %10, align 8
  %26 = call noundef zeroext i1 @_ZNKSt7__cxx1112basic_stringIcSt11char_traitsIcESaIcEE5emptyEv(ptr noundef nonnull align 8 dereferenceable(32) %25) #10
  br i1 %26, label %52, label %27

27:                                               ; preds = %4
  %28 = load ptr, ptr %9, align 8
  store ptr %28, ptr %12, align 8
  %29 = load ptr, ptr %12, align 8
  %30 = call ptr @_ZNKSt6vectorIN32pxrInternal_v0_24__pxrReserved__16TfPatternMatcherESaIS1_EE5beginEv(ptr noundef nonnull align 8 dereferenceable(24) %29) #10
  %31 = getelementptr inbounds nuw %"class.__gnu_cxx::__normal_iterator.53", ptr %13, i32 0, i32 0
  store ptr %30, ptr %31, align 8
  %32 = load ptr, ptr %12, align 8
  %33 = call ptr @_ZNKSt6vectorIN32pxrInternal_v0_24__pxrReserved__16TfPatternMatcherESaIS1_EE3endEv(ptr noundef nonnull align 8 dereferenceable(24) %32) #10
  %34 = getelementptr inbounds nuw %"class.__gnu_cxx::__normal_iterator.53", ptr %14, i32 0, i32 0
  store ptr %33, ptr %34, align 8
  br label %35

35:                                               ; preds = %49, %27
  %36 = call noundef zeroext i1 @_ZN9__gnu_cxxneIPKN32pxrInternal_v0_24__pxrReserved__16TfPatternMatcherESt6vectorIS2_SaIS2_EEEEbRKNS_17__normal_iteratorIT_T0_EESD_(ptr noundef nonnull align 8 dereferenceable(8) %13, ptr noundef nonnull align 8 dereferenceable(8) %14) #10
  br i1 %36, label %37, label %51

37:                                               ; preds = %35
  %38 = call noundef nonnull align 8 dereferenceable(104) ptr @_ZNK9__gnu_cxx17__normal_iteratorIPKN32pxrInternal_v0_24__pxrReserved__16TfPatternMatcherESt6vectorIS2_SaIS2_EEEdeEv(ptr noundef nonnull align 8 dereferenceable(8) %13) #10
  store ptr %38, ptr %15, align 8
  %39 = load ptr, ptr %15, align 8
  %40 = load ptr, ptr %10, align 8
  %41 = invoke noundef zeroext i1 @_ZNK32pxrInternal_v0_24__pxrReserved__16TfPatternMatcher5MatchERKNSt7__cxx1112basic_stringIcSt11char_traitsIcESaIcEEEPS6_(ptr noundef nonnull align 8 dereferenceable(104) %39, ptr noundef nonnull align 8 dereferenceable(32) %40, ptr noundef null)
          to label %42 unwind label %44

42:                                               ; preds = %37
  br i1 %41, label %43, label %48

43:                                               ; preds = %42
  store i1 true, ptr %5, align 1
  store i32 1, ptr %18, align 4
  br label %80

44:                                               ; preds = %68, %52, %37
  %45 = landingpad { ptr, i32 }
          cleanup
  %46 = extractvalue { ptr, i32 } %45, 0
  store ptr %46, ptr %16, align 8
  %47 = extractvalue { ptr, i32 } %45, 1
  store i32 %47, ptr %17, align 4
  call void @_ZNSt7__cxx1112basic_stringIcSt11char_traitsIcESaIcEED1Ev(ptr noundef nonnull align 8 dereferenceable(32) %11) #10
  br label %82

48:                                               ; preds = %42
  br label %49

49:                                               ; preds = %48
  %50 = call noundef nonnull align 8 dereferenceable(8) ptr @_ZN9__gnu_cxx17__normal_iteratorIPKN32pxrInternal_v0_24__pxrReserved__16TfPatternMatcherESt6vectorIS2_SaIS2_EEEppEv(ptr noundef nonnull align 8 dereferenceable(8) %13) #10
  br label %35

51:                                               ; preds = %35
  br label %52

52:                                               ; preds = %51, %4
  %53 = load ptr, ptr %7, align 8
  %54 = invoke noundef nonnull align 8 dereferenceable(32) ptr @_ZNK32pxrInternal_v0_24__pxrReserved__16TfDiagnosticBase13GetCommentaryB5cxx11Ev(ptr noundef nonnull align 8 dereferenceable(145) %53)
          to label %55 unwind label %44

55:                                               ; preds = %52
  store ptr %54, ptr %19, align 8
  %56 = load ptr, ptr %19, align 8
  %57 = call noundef zeroext i1 @_ZNKSt7__cxx1112basic_stringIcSt11char_traitsIcESaIcEE5emptyEv(ptr noundef nonnull align 8 dereferenceable(32) %56) #10
  br i1 %57, label %79, label %58

58:                                               ; preds = %55
  %59 = load ptr, ptr %8, align 8
  store ptr %59, ptr %20, align 8
  %60 = load ptr, ptr %20, align 8
  %61 = call ptr @_ZNKSt6vectorIN32pxrInternal_v0_24__pxrReserved__16TfPatternMatcherESaIS1_EE5beginEv(ptr noundef nonnull align 8 dereferenceable(24) %60) #10
  %62 = getelementptr inbounds nuw %"class.__gnu_cxx::__normal_iterator.53", ptr %21, i32 0, i32 0
  store ptr %61, ptr %62, align 8
  %63 = load ptr, ptr %20, align 8
  %64 = call ptr @_ZNKSt6vectorIN32pxrInternal_v0_24__pxrReserved__16TfPatternMatcherESaIS1_EE3endEv(ptr noundef nonnull align 8 dereferenceable(24) %63) #10
  %65 = getelementptr inbounds nuw %"class.__gnu_cxx::__normal_iterator.53", ptr %22, i32 0, i32 0
  store ptr %64, ptr %65, align 8
  br label %66

66:                                               ; preds = %76, %58
  %67 = call noundef zeroext i1 @_ZN9__gnu_cxxneIPKN32pxrInternal_v0_24__pxrReserved__16TfPatternMatcherESt6vectorIS2_SaIS2_EEEEbRKNS_17__normal_iteratorIT_T0_EESD_(ptr noundef nonnull align 8 dereferenceable(8) %21, ptr noundef nonnull align 8 dereferenceable(8) %22) #10
  br i1 %67, label %68, label %78

68:                                               ; preds = %66
  %69 = call noundef nonnull align 8 dereferenceable(104) ptr @_ZNK9__gnu_cxx17__normal_iteratorIPKN32pxrInternal_v0_24__pxrReserved__16TfPatternMatcherESt6vectorIS2_SaIS2_EEEdeEv(ptr noundef nonnull align 8 dereferenceable(8) %21) #10
  store ptr %69, ptr %23, align 8
  %70 = load ptr, ptr %23, align 8
  %71 = load ptr, ptr %19, align 8
  %72 = invoke noundef zeroext i1 @_ZNK32pxrInternal_v0_24__pxrReserved__16TfPatternMatcher5MatchERKNSt7__cxx1112basic_stringIcSt11char_traitsIcESaIcEEEPS6_(ptr noundef nonnull align 8 dereferenceable(104) %70, ptr noundef nonnull align 8 dereferenceable(32) %71, ptr noundef null)
          to label %73 unwind label %44

73:                                               ; preds = %68
  br i1 %72, label %74, label %75

74:                                               ; preds = %73
  store i1 true, ptr %5, align 1
  store i32 1, ptr %18, align 4
  br label %80

75:                                               ; preds = %73
  br label %76

76:                                               ; preds = %75
  %77 = call noundef nonnull align 8 dereferenceable(8) ptr @_ZN9__gnu_cxx17__normal_iteratorIPKN32pxrInternal_v0_24__pxrReserved__16TfPatternMatcherESt6vectorIS2_SaIS2_EEEppEv(ptr noundef nonnull align 8 dereferenceable(8) %21) #10
  br label %66

78:                                               ; preds = %66
  br label %79

79:                                               ; preds = %78, %55
  store i1 false, ptr %5, align 1
  store i32 1, ptr %18, align 4
  br label %80

80:                                               ; preds = %79, %74, %43
  call void @_ZNSt7__cxx1112basic_stringIcSt11char_traitsIcESaIcEED1Ev(ptr noundef nonnull align 8 dereferenceable(32) %11) #10
  %81 = load i1, ptr %5, align 1
  ret i1 %81

82:                                               ; preds = %44
  %83 = load ptr, ptr %16, align 8
  %84 = load i32, ptr %17, align 4
  %85 = insertvalue { ptr, i32 } poison, ptr %83, 0
  %86 = insertvalue { ptr, i32 } %85, i32 %84, 1
  resume { ptr, i32 } %86
}