; Function Attrs: mustprogress uwtable
define noundef zeroext i1 @_ZN32pxrInternal_v0_24__pxrReserved__42UsdUtilsConditionalAbortDiagnosticDelegate12_RuleMatcherERKNS_16TfDiagnosticBaseERKSt6vectorINS_16TfPatternMatcherESaIS5_EES9_(ptr nonnull readnone align 8 captures(none) %0, ptr noundef nonnull align 8 dereferenceable(145) %1, ptr noundef nonnull readonly align 8 captures(none) dereferenceable(24) %2, ptr noundef nonnull readonly align 8 captures(none) dereferenceable(24) %3) unnamed_addr #0 align 2 personality ptr @__gxx_personality_v0 {
  %5 = alloca %"class.std::__cxx11::basic_string", align 8
  call void @_ZNK32pxrInternal_v0_24__pxrReserved__16TfDiagnosticBase17GetSourceFileNameB5cxx11Ev(ptr dead_on_unwind nonnull writable sret(%"class.std::__cxx11::basic_string") align 8 %5, ptr noundef nonnull align 8 dereferenceable(145) %1)
  %6 = call noundef zeroext i1 @_ZNKSt7__cxx1112basic_stringIcSt11char_traitsIcESaIcEE5emptyEv(ptr noundef nonnull align 8 dereferenceable(32) %5) #19
  br i1 %6, label %.loopexit25, label %7

7:                                                ; preds = %4
  %8 = load ptr, ptr %3, align 8
  %9 = getelementptr inbounds nuw i8, ptr %3, i64 8
  %10 = load ptr, ptr %9, align 8
  %.not27 = icmp eq ptr %8, %10
  br i1 %.not27, label %.loopexit25, label %.lr.ph

11:                                               ; preds = %14
  %12 = getelementptr inbounds nuw i8, ptr %.sroa.020.028, i64 104
  %.not = icmp eq ptr %12, %10
  br i1 %.not, label %.loopexit25, label %.lr.ph

.lr.ph:                                           ; preds = %7, %11
  %.sroa.020.028 = phi ptr [ %12, %11 ], [ %8, %7 ]
  %13 = invoke noundef zeroext i1 @_ZNK32pxrInternal_v0_24__pxrReserved__16TfPatternMatcher5MatchERKNSt7__cxx1112basic_stringIcSt11char_traitsIcESaIcEEEPS6_(ptr noundef nonnull align 8 dereferenceable(104) %.sroa.020.028, ptr noundef nonnull align 8 dereferenceable(32) %5, ptr noundef null)
          to label %14 unwind label %.loopexit.split-lp

14:                                               ; preds = %.lr.ph
  br i1 %13, label %.loopexit, label %11

.loopexit24:                                      ; preds = %.lr.ph31
  %lpad.loopexit = landingpad { ptr, i32 }
          cleanup
  br label %15

.loopexit.split-lp:                               ; preds = %.lr.ph
  %lpad.loopexit.split-lp = landingpad { ptr, i32 }
          cleanup
  br label %15

15:                                               ; preds = %.loopexit.split-lp, %.loopexit24
  %lpad.phi = phi { ptr, i32 } [ %lpad.loopexit, %.loopexit24 ], [ %lpad.loopexit.split-lp, %.loopexit.split-lp ]
  call void @_ZNSt7__cxx1112basic_stringIcSt11char_traitsIcESaIcEED1Ev(ptr noundef nonnull align 8 dereferenceable(32) %5) #19
  resume { ptr, i32 } %lpad.phi

.loopexit25:                                      ; preds = %11, %7, %4
  %16 = getelementptr inbounds nuw i8, ptr %1, i64 40
  %17 = call noundef zeroext i1 @_ZNKSt7__cxx1112basic_stringIcSt11char_traitsIcESaIcEE5emptyEv(ptr noundef nonnull align 8 dereferenceable(32) %16) #19
  br i1 %17, label %.loopexit, label %18

18:                                               ; preds = %.loopexit25
  %19 = load ptr, ptr %2, align 8
  %20 = getelementptr inbounds nuw i8, ptr %2, i64 8
  %21 = load ptr, ptr %20, align 8
  %.not2329 = icmp eq ptr %19, %21
  br i1 %.not2329, label %.loopexit, label %.lr.ph31

.lr.ph31:                                         ; preds = %18, %23
  %.sroa.016.030 = phi ptr [ %24, %23 ], [ %19, %18 ]
  %22 = invoke noundef zeroext i1 @_ZNK32pxrInternal_v0_24__pxrReserved__16TfPatternMatcher5MatchERKNSt7__cxx1112basic_stringIcSt11char_traitsIcESaIcEEEPS6_(ptr noundef nonnull align 8 dereferenceable(104) %.sroa.016.030, ptr noundef nonnull align 8 dereferenceable(32) %16, ptr noundef null)
          to label %23 unwind label %.loopexit24

23:                                               ; preds = %.lr.ph31
  %24 = getelementptr inbounds nuw i8, ptr %.sroa.016.030, i64 104
  %.not23 = icmp eq ptr %24, %21
  %or.cond = select i1 %22, i1 true, i1 %.not23
  br i1 %or.cond, label %.loopexit, label %.lr.ph31

.loopexit:                                        ; preds = %14, %23, %18, %.loopexit25
  %.0 = phi i1 [ false, %.loopexit25 ], [ false, %18 ], [ %22, %23 ], [ true, %14 ]
  call void @_ZNSt7__cxx1112basic_stringIcSt11char_traitsIcESaIcEED1Ev(ptr noundef nonnull align 8 dereferenceable(32) %5) #19
  ret i1 %.0
}